(dp0
S'result'
p1
(lp2
c__builtin__
set
p3
((lp4
Vbig
p5
aVproduct
p6
aVdata
p7
aVanalysis
p8
aVbased
p9
atp10
Rp11
ag3
((lp12
Vgraph
p13
aVdata
p14
aVexample
p15
aVbest
p16
aVdatabase
p17
atp18
Rp19
ag3
((lp20
Vbig
p21
aVcustomers
p22
aVdata
p23
aVcompanies
p24
aVvalue
p25
atp26
Rp27
ag3
((lp28
Vbig
p29
aVdata
p30
aVdisaster
p31
aVform
p32
aVcrisis
p33
atp34
Rp35
ag3
((lp36
Vunstructured
p37
aVgenerated
p38
aVdata
p39
aVlike
p40
aVpeople
p41
atp42
Rp43
ag3
((lp44
Vunstructured
p45
aVapplications
p46
aVdata
p47
aVsan
p48
aVpeople
p49
atp50
Rp51
ag3
((lp52
Vbig
p53
aVmanagement
p54
aVdata
p55
aVstreams
p56
aVtime
p57
atp58
Rp59
ag3
((lp60
Vsources
p61
aVdiverse
p62
aVinclude
p63
aVdata
p64
aVtypes
p65
atp66
Rp67
ag3
((lp68
Vmedicine
p69
aVbig
p70
aVhealth
p71
aVdata
p72
aVjust
p73
atp74
Rp75
ag3
((lp76
Vhealth
p77
aVgenerated
p78
aVdata
p79
aVhuman
p80
aVpeople
p81
atp82
Rp83
asS'timings'
p84
(lp85
S'0:0:0,0:7:22'
p86
aS'0:7:22,0:19:58'
p87
aS'0:19:58,0:21:42'
p88
aS'0:21:42,0:23:14'
p89
aS'0:23:14,0:43:1'
p90
aS'0:43:1,1:25:37'
p91
aS'1:25:37,1:27:12'
p92
aS'1:27:12,1:28:42'
p93
aS'1:28:42,2:59:9'
p94
aS'2:59:11,3:1:39'
p95
as.