(dp0
S'result'
p1
(lp2
c__builtin__
set
p3
((lp4
Vproduct
p5
aVbased
p6
aVbig
p7
aVcompanies
p8
aVcustomers
p9
aVanalysis
p10
aVamazon
p11
aVdanone
p12
aVmeltwater
p13
aVdata
p14
atp15
Rp16
ag3
((lp17
Vused
p18
aVdatabase
p19
aVgraph
p20
aVsolution
p21
aVvalue
p22
aVcourse
p23
aVkey
p24
aVdata
p25
aVexample
p26
aVbest
p27
atp28
Rp29
ag3
((lp30
Vcustomers
p31
aVsentiment
p32
aVbig
p33
aVcompanies
p34
aVvalue
p35
aVgenerated
p36
aVlet
p37
aVproblem
p38
aVdata
p39
aVlisten
p40
atp41
Rp42
ag3
((lp43
Vmappers
p44
aVuse
p45
aVdisaster
p46
aVform
p47
aVbig
p48
aVcustomers
p49
aVcommunity
p50
aVresponse
p51
aVdata
p52
aVcrisis
p53
atp54
Rp55
ag3
((lp56
Vlike
p57
aVpeople
p58
aVsection
p59
aVunstructured
p60
aVapplications
p61
aVgenerated
p62
aVmodel
p63
aVdata
p64
aVemail
p65
aVstore
p66
atp67
Rp68
ag3
((lp69
Vsan
p70
aVpeople
p71
aVprocess
p72
aVscience
p73
aVwork
p74
aVvalue
p75
aVunstructured
p76
aVapplications
p77
aVtime
p78
aVdata
p79
atp80
Rp81
ag3
((lp82
Vreal
p83
aVwildfire
p84
aVdirection
p85
aVmanagement
p86
aVbig
p87
aVdata
p88
aVstreams
p89
aVtools
p90
aVtime
p91
aVcome
p92
atp93
Rp94
ag3
((lp95
Vstreaming
p96
aVmaps
p97
aVsources
p98
aVdiverse
p99
aVtypes
p100
aVfuel
p101
aVsatellites
p102
aVinclude
p103
aVdata
p104
aVimportant
p105
atp106
Rp107
ag3
((lp108
Vjust
p109
aVbig
p110
aVprecision
p111
aVyears
p112
aVhealth
p113
aVgenome
p114
aVhuman
p115
aVmedicine
p116
aVlet
p117
aVdata
p118
atp119
Rp120
ag3
((lp121
Vreal
p122
aVinformation
p123
aVbusiness
p124
aVbig
p125
aVprocessing
p126
aVgenerated
p127
aVtime
p128
aVneed
p129
aVnew
p130
aVdata
p131
atp132
Rp133
ag3
((lp134
Vcustomer
p135
aVinformation
p136
aVlike
p137
aVscience
p138
aVanalysis
p139
aVspecific
p140
aVbook
p141
aVaction
p142
aVusing
p143
aVdata
p144
atp145
Rp146
ag3
((lp147
Vbased
p148
aVlike
p149
aVbusiness
p150
aVskills
p151
aVscience
p152
aVteams
p153
aVexpertise
p154
aVaction
p155
aVdata
p156
aVdeeper
p157
atp158
Rp159
ag3
((lp160
Vactivities
p161
aVscale
p162
aVlike
p163
aVprocess
p164
aVbig
p165
aVteam
p166
aVscalability
p167
aVsteps
p168
aVscience
p169
aVdata
p170
atp171
Rp172
ag3
((lp173
Vweb
p174
aVstores
p175
aVlike
p176
aVaccess
p177
aVweather
p178
aVdetermine
p179
aVdatabases
p180
aVservices
p181
aVusing
p182
aVdata
p183
atp184
Rp185
ag3
((lp186
Vset
p187
aVvariables
p188
aVmeasures
p189
aVrange
p190
aVsummary
p191
aVstep
p192
aVstatistics
p193
aVvalues
p194
aVoutliers
p195
aVdata
p196
atp197
Rp198
ag3
((lp199
Vcustomer
p200
aVdifferent
p201
aVlike
p202
aVmissing
p203
aVdata
p204
aVrecords
p205
aVvalues
p206
aVaddress
p207
aVquality
p208
aVissues
p209
atp210
Rp211
ag3
((lp212
Vknowledge
p213
aVmunging
p214
aVwrangling
p215
aVvalue
p216
aVpreprocessing
p217
aVvalues
p218
aVreasonable
p219
aVmanipulation
p220
aVemployee
p221
aVdata
p222
atp223
Rp224
ag3
((lp225
Vvariability
p226
aVfeatures
p227
aVweight
p228
aVsales
p229
aVheight
p230
aVscaling
p231
aVzero
p232
aVvalues
p233
aVdata
p234
aVexample
p235
atp236
Rp237
ag3
((lp238
Vused
p239
aVfeatures
p240
aVclassification
p241
aVanalysis
p242
aVregression
p243
aVmodel
p244
aVdata
p245
aVexample
p246
aVmarket
p247
aVlike
p248
atp249
Rp250
ag3
((lp251
Vcustomer
p252
aVclustering
p253
aVdelays
p254
aVresults
p255
aVanalysis
p256
aVsegments
p257
aVperformance
p258
aVmodel
p259
aVdata
p260
aVexample
p261
atp262
Rp263
ag3
((lp264
Vrainy
p265
aVreporting
p266
aVresults
p267
aVanalysis
p268
aVstep
p269
aVweather
p270
aVpresent
p271
aVdata
p272
aVtypes
p273
aVinsights
p274
atp275
Rp276
ag3
((lp277
Vbased
p278
aVcreate
p279
aVjavascript
p280
aVallows
p281
aVresults
p282
aVlibrary
p283
aVvalue
p284
aVvisualizations
p285
aVdata
p286
aVinsights
p287
atp288
Rp289
ag3
((lp290
Vimpact
p291
aVadditional
p292
aVapplication
p293
aVprocess
p294
aVresults
p295
aVneed
p296
aVstep
p297
aVaction
p298
aVdata
p299
aVchange
p300
atp301
Rp302
ag3
((lp303
Vreal
p304
aVprocess
p305
aVscience
p306
aVactions
p307
aVincludes
p308
aVsteps
p309
aVsystems
p310
aVactivity
p311
aVaction
p312
aVdata
p313
atp314
Rp315
ag3
((lp316
Vhdfs
p317
aVrun
p318
aVcomputing
p319
aVbig
p320
aVmapreduce
p321
aVhadoop
p322
aVfile
p323
aVmodel
p324
aVdata
p325
aVnodes
p326
atp327
Rp328
ag3
((lp329
Vuse
p330
aVtask
p331
aVmultiple
p332
aVhadoop
p333
aVsimultaneous
p334
aVparallelism
p335
aVwant
p336
aVexecution
p337
aVdata
p338
aVfriendly
p339
atp340
Rp341
ag3
((lp342
Vproceed
p343
aVdatabase
p344
aVecosystem
p345
aVcoupled
p346
aVhadoop
p347
aVcaution
p348
aVtools
p349
aValgorithms
p350
aVdata
p351
aVshows
p352
atp353
Rp354
ag3
((lp355
Vresource
p356
aVjust
p357
aVapplications
p358
aVhadoop
p359
aVyarn
p360
aVsensitive
p361
aVmanager
p362
aVmodel
p363
aVdata
p364
aVadvanced
p365
atp366
Rp367
ag3
((lp368
Vnode
p369
aVresource
p370
aVbig
p371
aVhadoop
p372
aVyarn
p373
aVmachine
p374
aVapplications
p375
aVmanager
p376
aVanalysis
p377
aVdata
p378
atp379
Rp380
ag3
((lp381
Vnode
p382
aVengine
p383
aVtasks
p384
aVcontainer
p385
aVyahoo
p386
aVyarn
p387
aVapplication
p388
aVmanager
p389
aVresource
p390
aVcpu
p391
atp392
Rp393
ag3
((lp394
Vsubset
p395
aVdifferent
p396
aVlike
p397
aVquality
p398
aVbig
p399
aVuse
p400
aVoperator
p401
aVdata
p402
aVexample
p403
aVstore
p404
atp405
Rp406
ag3
((lp407
Vdifferent
p408
aVflight
p409
aVjust
p410
aVprocessing
p411
aVstorage
p412
aVgoing
p413
aVtime
p414
aVneed
p415
aVdata
p416
aVreally
p417
atp418
Rp419
ag3
((lp420
Vprocess
p421
aVbig
p422
aVmapreduce
p423
aVanalysis
p424
aVhadoop
p425
aVstep
p426
aVsteps
p427
aVscience
p428
aVmodel
p429
aVdata
p430
atp431
Rp432
ag3
((lp433
Vmanagement
p434
aVjust
p435
aVcreated
p436
aVskills
p437
aVbig
p438
aVcourse
p439
aVfacebook
p440
aVtools
p441
aVmodeling
p442
aVdata
p443
atp444
Rp445
ag3
((lp446
Vkind
p447
aVmanagement
p448
aVgoal
p449
aVbig
p450
aVstorage
p451
aVlet
p452
aVsense
p453
aVneed
p454
aVdata
p455
aVexample
p456
atp457
Rp458
ag3
((lp459
Vplot
p460
aVdifferent
p461
aVlook
p462
aVgraph
p463
aVmeasurements
p464
aVair
p465
aVpressure
p466
aVlet
p467
aVfile
p468
aVdata
p469
atp470
Rp471
ag3
((lp472
Vreal
p473
aVcontaining
p474
aVrun
p475
aVtwitter
p476
aVcd
p477
aVdirectory
p478
aVlet
p479
aVtime
p480
aVtweets
p481
aVdata
p482
atp483
Rp484
ag3
((lp485
Vdbms
p486
aVlike
p487
aVbig
p488
aVprocessing
p489
aVstreaming
p490
aVsystems
p491
aVtime
p492
aVquery
p493
aVdata
p494
aVexample
p495
atp496
Rp497
ag3
((lp498
Vsays
p499
aVprice
p500
aVuserid
p501
aVbuyclicks
p502
aVcontents
p503
aVwant
p504
aVtable
p505
aVquery
p506
aVcolumns
p507
aVselect
p508
atp509
Rp510
ag3
((lp511
Vadclicks
p512
aVadid
p513
aVcolumn
p514
aVprice
p515
aVuserid
p516
aVbuyclicks
p517
aVrunning
p518
aVcombine
p519
aVtable
p520
aVselect
p521
atp522
Rp523
ag3
((lp524
Vdistinct
p525
aVattribute
p526
aVrelations
p527
aValias
p528
aVcommon
p529
aVclause
p530
aVneed
p531
aVquery
p532
aVtable
p533
aVdrinker
p534
atp535
Rp536
ag3
((lp537
Vjoin
p538
aVdrinkers
p539
aVcolumn
p540
aVrelation
p541
aVlikes
p542
aVquery
p543
aVfrequents
p544
aVtable
p545
aVoperation
p546
aVdata
p547
atp548
Rp549
ag3
((lp550
Vlike
p551
aVcharges
p552
aVprice
p553
aVsite1
p554
aVshipped
p555
aVlet
p556
aVred
p557
aVtgab
p558
aVoperation
p559
aVbud
p560
atp561
Rp562
ag3
((lp563
Vcase
p564
aVouter
p565
aVlike
p566
aVdid
p567
aVprice
p568
aVsubquery
p569
aVinner
p570
aVsituation
p571
aVquery
p572
aVexample
p573
atp574
Rp575
ag3
((lp576
Vdifferent
p577
aVset
p578
aVaverage
p579
aVfred
p580
aVbeer
p581
aVbeers
p582
aVknow
p583
aVtable
p584
aVquery
p585
aVprice
p586
atp587
Rp588
ag3
((lp589
Vfunction
p590
aVtakes
p591
aVaverage
p592
aVlist
p593
aVvalue
p594
aVvalues
p595
aVinner
p596
aVquery
p597
aVprice
p598
aVbud
p599
atp600
Rp601
ag3
((lp602
Vselection
p603
aVprice
p604
aVlist
p605
aVaggregate
p606
aVneed
p607
aVvalues
p608
aVdrinker
p609
aVanalytical
p610
aVaverage
p611
aVgrouping
p612
atp613
Rp614
ag3
((lp615
Vmanagement
p616
aVlike
p617
aVdatabase
p618
aVbig
p619
aVprocessing
p620
aVsystems
p621
aVtable
p622
aVneed
p623
aVquery
p624
aVdata
p625
atp626
Rp627
ag3
((lp628
Vcase
p629
aVcust
p630
aVattribute
p631
aVvalue
p632
aVlike
p633
aVmongodb
p634
aVoperation
p635
aVstage
p636
aVid
p637
aVgrouping
p638
atp639
Rp640
ag3
((lp641
Vfunction
p642
aVcase
p643
aVsearch
p644
aVdirective
p645
aVattribute
p646
aVscore
p647
aVtext
p648
aVdocument
p649
aVtells
p650
aVmetadata
p651
atp652
Rp653
ag3
((lp654
Vuse
p655
aVabc
p656
aVjoin
p657
aVmongodb
p658
aVcollection
p659
aVitem
p660
aVinventory
p661
aVdocument
p662
aVlocal
p663
aVorders
p664
atp665
Rp666
ag3
((lp667
Vsku
p668
aVabc
p669
aVrecord
p670
aVpython
p671
aVnull
p672
aVitem
p673
aVinventory
p674
aVdocument
p675
aVpandas
p676
aVmatch
p677
atp678
Rp679
ag3
((lp680
Vrows
p681
aVread
p682
aVdataframe
p683
aVlet
p684
aVcolumns
p685
aVfile
p686
aVipython
p687
aVcsv
p688
aVpandas
p689
aVdot
p690
atp691
Rp692
ag3
((lp693
Vwant
p694
aVcolumn
p695
aVprice
p696
aVid
p697
aVbuyclicksdf
p698
aVbracket
p699
aVlet
p700
aVentering
p701
aVcsv
p702
aVaverage
p703
atp704
Rp705
ag3
((lp706
Vlook
p707
aVaerospike
p708
aVmergedf
p709
aVdataframe
p710
aVaccess
p711
aVsay
p712
aVspaces
p713
aVlet
p714
aVcsv
p715
aVdata
p716
atp717
Rp718
ag3
((lp719
Vindex
p720
aVset
p721
aVlike
p722
aVspace
p723
aVvalue
p724
aVrecords
p725
aVstored
p726
aVdisk
p727
aVdata
p728
aVrecord
p729
atp730
Rp731
ag3
((lp732
Vaerospike
p733
aVlanguage
p734
aVtype
p735
aVtweet
p736
aVvalue
p737
aVkey
p738
aVquery
p739
aVdata
p740
aVbins
p741
aVshows
p742
atp743
Rp744
ag3
((lp745
Vmongodb
p746
aV30
p747
aVslide
p748
aVwindow
p749
aVsql
p750
aVquery
p751
aVdata
p752
aVexample
p753
aVunit
p754
aVsize
p755
atp756
Rp757
ag3
((lp758
Vfield
p759
aVdbpath
p760
aVdatabase
p761
aVmongodb
p762
aVdb
p763
aVserver
p764
aVterminal
p765
aVstart
p766
aVrunning
p767
aVdata
p768
atp769
Rp770
ag3
((lp771
Vusername
p772
aVcount
p773
aVdocuments
p774
aVusers
p775
aVdistinct
p776
aVdb
p777
aVcollection
p778
aVfield
p779
aVvalues
p780
aVlet
p781
atp782
Rp783
ag3
((lp784
Vfifa
p785
aVadding
p786
aVrun
p787
aVturn
p788
aVtext
p789
aVtweet
p790
aVfield
p791
aVcommand
p792
aVquery
p793
aVid
p794
atp795
Rp796
ag3
((lp797
Vfunction
p798
aVreturn
p799
aVwant
p800
aVmongodb
p801
aVcollection
p802
aVjson
p803
aVvalue
p804
aVkey
p805
aVquery
p806
aVcalled
p807
atp808
Rp809
ag3
((lp810
Vcase
p811
aVcount
p812
aVuse
p813
aVpartial
p814
aVstring
p815
aVmongodb
p816
aVoperators
p817
aVquery
p818
aVarray
p819
aVintersection
p820
atp821
Rp822
ag3
((lp823
Vsub
p824
aVtags
p825
aVclause
p826
aVelement
p827
aV99
p828
aVsecond
p829
aVquery
p830
aVarray
p831
aVconditions
p832
aVcondition
p833
atp834
Rp835
ag3
((lp836
Vdocuments
p837
aVtuple
p838
aVarea
p839
aVelement
p840
aVtuples
p841
aVsecond
p842
aVpoints
p843
aVquery
p844
aV80
p845
aVdocument
p846
atp847
Rp848
ag3
((lp849
Vnode
p850
aVtarget
p851
aVsources
p852
aVmaps
p853
aVmeans
p854
aVdisease
p855
aVchronic
p856
aVquery
p857
aVdata
p858
aVschema
p859
atp860
Rp861
ag3
((lp862
Vinformation
p863
aVtreats
p864
aVexchange
p865
aVhospitals
p866
aVdisease
p867
aVsources
p868
aVvirus
p869
aVhealth
p870
aVquery
p871
aVdata
p872
atp873
Rp874
ag3
((lp875
Vcode
p876
aVterms
p877
aVlike
p878
aVdatabase
p879
aVlab
p880
aVstandard
p881
aVpatient
p882
aVdata
p883
aVcalled
p884
aVschema
p885
atp886
Rp887
ag3
((lp888
Vcase
p889
aVuse
p890
aVused
p891
aVterms
p892
aVlike
p893
aVable
p894
aVsurgical
p895
aVneed
p896
aVdata
p897
aVschema
p898
atp899
Rp900
ag3
((lp901
Vdifferent
p902
aVbig
p903
aVnumber
p904
aVlet
p905
aVwant
p906
aVsplunk
p907
aVusing
p908
aVspark
p909
aVdata
p910
aVexample
p911
atp912
Rp913
ag3
((lp914
Vlayer
p915
aVmanagement
p916
aVbig
p917
aVprocessing
p918
aVstorage
p919
aVhadoop
p920
aVsystems
p921
aVtools
p922
aVspark
p923
aVdata
p924
atp925
Rp926
ag3
((lp927
Vlayer
p928
aVmanagement
p929
aVbig
p930
aVmachine
p931
aVcourse
p932
aVtools
p933
aVlearning
p934
aVgraph
p935
aVspark
p936
aVdata
p937
atp938
Rp939
ag3
((lp940
Voperations
p941
aVlayer
p942
aVpipelines
p943
aVtools
p944
aVprocessing
p945
aVintegration
p946
aVspecific
p947
aVvideo
p948
aVbig
p949
aVdata
p950
atp951
Rp952
ag3
((lp953
Vproduct
p954
aVlike
p955
aVjust
p956
aVpeople
p957
aVteam
p958
aVkey
p959
aVsets
p960
aVoperation
p961
aVdata
p962
aVwant
p963
atp964
Rp965
ag3
((lp966
Vuse
p967
aVstreaming
p968
aVbig
p969
aVmake
p970
aVprocessing
p971
aVnumber
p972
aVapplication
p973
aVsystems
p974
aVdata
p975
aVsupport
p976
atp977
Rp978
ag3
((lp979
Vlatency
p980
aVdifferent
p981
aVlike
p982
aVevaluation
p983
aVprocessing
p984
aVtolerance
p985
aVimportant
p986
aVcriteria
p987
aVexecution
p988
aVdata
p989
atp990
Rp991
ag3
((lp992
Vaddition
p993
aViterative
p994
aVsupport
p995
aVprogramming
p996
aVmapreduce
p997
aVapplications
p998
aVperformance
p999
aVusing
p1000
aVspark
p1001
aVdata
p1002
atp1003
Rp1004
ag3
((lp1005
Vlike
p1006
aVscala
p1007
aVflink
p1008
aVprogramming
p1009
aVstreaming
p1010
aVprovides
p1011
aVspark
p1012
aVexecution
p1013
aVdata
p1014
aVcalled
p1015
atp1016
Rp1017
ag3
((lp1018
Vstream
p1019
aVabstractions
p1020
aVprogramming
p1021
aVprocessing
p1022
aVflow
p1023
aVstreaming
p1024
aVbeam
p1025
aVdata
p1026
aVcalled
p1027
aVsdk
p1028
atp1029
Rp1030
ag3
((lp1031
Voperations
p1032
aVused
p1033
aVbig
p1034
aVprocessing
p1035
aVbatch
p1036
aVarchitecture
p1037
aVstorm
p1038
aVanalytical
p1039
aVspark
p1040
aVdata
p1041
atp1042
Rp1043
ag3
((lp1044
Vtask
p1045
aVrisk
p1046
aVclassification
p1047
aVloan
p1048
aVanalysis
p1049
aVapplication
p1050
aVvalues
p1051
aVinput
p1052
aVdata
p1053
aVinsights
p1054
atp1055
Rp1056
ag3
((lp1057
Vbased
p1058
aVrisk
p1059
aVclassification
p1060
aVloan
p1061
aVtechnique
p1062
aVtree
p1063
aVanalysis
p1064
aVapplication
p1065
aValgorithm
p1066
aVdecision
p1067
atp1068
Rp1069
ag3
((lp1070
Vused
p1071
aVmllib
p1072
aVtransformation
p1073
aVmachine
p1074
aVrdd
p1075
aVlet
p1076
aVexample
p1077
aVspark
p1078
aVdata
p1079
aVline
p1080
atp1081
Rp1082
ag3
((lp1083
Vrdds
p1084
aVprovides
p1085
aVmachine
p1086
aVstreaming
p1087
aVlearning
p1088
aVsql
p1089
aVusing
p1090
aVspark
p1091
aVdata
p1092
aVline
p1093
atp1094
Rp1095
ag3
((lp1096
Vdifferent
p1097
aVcloudy
p1098
aVmachine
p1099
aVlearning
p1100
aVinput
p1101
aVmain
p1102
aVdata
p1103
aVexample
p1104
aVcategories
p1105
aVtechniques
p1106
atp1107
Rp1108
ag3
((lp1109
Vdifferent
p1110
aVclassification
p1111
aVitems
p1112
aVpredicting
p1113
aVcustomers
p1114
aVanalysis
p1115
aVcluster
p1116
aVgroups
p1117
aVregression
p1118
aVassociation
p1119
atp1120
Rp1121
ag3
((lp1122
Vcustomers
p1123
aVtask
p1124
aVunsupervised
p1125
aVpredicting
p1126
aVapproaches
p1127
aVanalysis
p1128
aVgeneral
p1129
aVlabeled
p1130
aVdata
p1131
aVexample
p1132
atp1133
Rp1134
ag3
((lp1135
Vactivities
p1136
aVdifferent
p1137
aVprocess
p1138
aVrelated
p1139
aVmachine
p1140
aVstep
p1141
aVgoals
p1142
aVlearning
p1143
aVlecture
p1144
aVdata
p1145
atp1146
Rp1147
ag3
((lp1148
Vdifferent
p1149
aVset
p1150
aVmeasures
p1151
aVstep
p1152
aVsummary
p1153
aVexplore
p1154
aVstatistics
p1155
aVexploration
p1156
aVrange
p1157
aVdata
p1158
atp1159
Rp1160
ag3
((lp1161
Vused
p1162
aVfeatures
p1163
aVresults
p1164
aVanalysis
p1165
aVmachine
p1166
aVapplication
p1167
aVstep
p1168
aVlearning
p1169
aVmodel
p1170
aVdata
p1171
atp1172
Rp1173
ag3
((lp1174
Vmining
p1175
aVused
p1176
aVterms
p1177
aVterm
p1178
aVmachine
p1179
aValgorithms
p1180
aVlearning
p1181
aVdatabases
p1182
aVdata
p1183
aVtechniques
p1184
atp1185
Rp1186
ag3
((lp1187
Vdifferent
p1188
aVused
p1189
aVbig
p1190
aVterm
p1191
aVmachine
p1192
aVlearning
p1193
aVscience
p1194
aVextracting
p1195
aVdata
p1196
aVtechniques
p1197
atp1198
Rp1199
ag3
((lp1200
Vproject
p1201
aVused
p1202
aVprocess
p1203
aVcover
p1204
aVmachine
p1205
aVsteps
p1206
aVpurpose
p1207
aVlearning
p1208
aVlecture
p1209
aVdiscuss
p1210
atp1211
Rp1212
ag3
((lp1213
Vprocess
p1214
aVselecting
p1215
aVresults
p1216
aVanalysis
p1217
aVmachine
p1218
aVstep
p1219
aVunderstand
p1220
aVlearning
p1221
aVdata
p1222
aVinvolves
p1223
atp1224
Rp1225
ag3
((lp1226
Vprocess
p1227
aVrequire
p1228
aViterative
p1229
aVresults
p1230
aVanalysis
p1231
aVdid
p1232
aVstep
p1233
aVdata
p1234
aVissues
p1235
aVinsights
p1236
atp1237
Rp1238
ag3
((lp1239
Vhardware
p1240
aVscale
p1241
aVbig
p1242
aVprocessing
p1243
aVdata
p1244
aVmachine
p1245
aVlearning
p1246
aVoperation
p1247
aVapproach
p1248
aVtechniques
p1249
atp1250
Rp1251
ag3
((lp1252
Vapplied
p1253
aVsubsets
p1254
aVdata
p1255
aVprocessing
p1256
aVdistributed
p1257
aVmachine
p1258
aVlearning
p1259
aVtime
p1260
aVapproach
p1261
aVparallel
p1262
atp1263
Rp1264
ag3
((lp1265
Vbig
p1266
aVdynamic
p1267
aVvalue
p1268
aVdriven
p1269
aVapplications
p1270
aVapproach
p1271
aValgorithms
p1272
aVcapabilities
p1273
aVdata
p1274
aVsmart
p1275
atp1276
Rp1277
ag3
((lp1278
Vmanagement
p1279
aVbig
p1280
aVprocessing
p1281
aVhadoop
p1282
aVscalability
p1283
aVnumber
p1284
aVtools
p1285
aVecosystem
p1286
aVusing
p1287
aVdata
p1288
atp1289
Rp1290
ag3
((lp1291
Vmanagement
p1292
aVstores
p1293
aVprocessing
p1294
aVvariety
p1295
aVbig
p1296
aVstructured
p1297
aVstorage
p1298
aVtalked
p1299
aVtools
p1300
aVdata
p1301
atp1302
Rp1303
ag3
((lp1304
Vlayer
p1305
aVlike
p1306
aVbig
p1307
aVtools
p1308
aVprocessing
p1309
aVnumber
p1310
aVlearning
p1311
aVgraph
p1312
aVspark
p1313
aVdata
p1314
atp1315
Rp1316
ag3
((lp1317
Vlayer
p1318
aVmanagement
p1319
aVworkflow
p1320
aVprocess
p1321
aVtools
p1322
aVmachine
p1323
aVlearning
p1324
aVbig
p1325
aVdata
p1326
aVcoordination
p1327
atp1328
Rp1329
ag3
((lp1330
Vnode
p1331
aVknime
p1332
aVfile
p1333
aVworkflow
p1334
aVdata
p1335
aVmllib
p1336
aVmachine
p1337
aVlearning
p1338
aVnodes
p1339
aVtools
p1340
atp1341
Rp1342
ag3
((lp1343
Vnode
p1344
aVknime
p1345
aVlearning
p1346
aVdata
p1347
aVconnected
p1348
aVprovides
p1349
aVoutput
p1350
aVnodes
p1351
aVapproach
p1352
aVspark
p1353
atp1354
Rp1355
ag3
((lp1356
Voperations
p1357
aVcode
p1358
aVprovides
p1359
aVdistributed
p1360
aVmllib
p1361
aVmachine
p1362
aVused
p1363
aValgorithms
p1364
aVlearning
p1365
aVspark
p1366
atp1367
Rp1368
ag3
((lp1369
Vdiego
p1370
aVsan
p1371
aVscience
p1372
aVwork
p1373
aVmachine
p1374
aVcalifornia
p1375
aVlearning
p1376
aVfamiliar
p1377
aVteach
p1378
aVdata
p1379
atp1380
Rp1381
ag3
((lp1382
Vmanagement
p1383
aVdevelop
p1384
aVcourses
p1385
aVbig
p1386
aVanalysis
p1387
aVmachine
p1388
aVapplications
p1389
aVlearning
p1390
aVevaluate
p1391
aVdata
p1392
atp1393
Rp1394
ag3
((lp1395
Vplot
p1396
aVstatistics
p1397
aVmissing
p1398
aVvariables
p1399
aVvalue
p1400
aVsummary
p1401
aVvalues
p1402
aVvariable
p1403
aVdata
p1404
aVexample
p1405
atp1406
Rp1407
ag3
((lp1408
Vpositive
p1409
aVvariables
p1410
aVnumber
p1411
aVnumeric
p1412
aVdataset
p1413
aVsample
p1414
aVvalues
p1415
aVvariable
p1416
aVdata
p1417
aVday
p1418
atp1419
Rp1420
ag3
((lp1421
Vfeatures
p1422
aVclassification
p1423
aVmissing
p1424
aVdecision
p1425
aVfeature
p1426
aVvalue
p1427
aVvalues
p1428
aVinput
p1429
aVmodel
p1430
aVdata
p1431
atp1432
Rp1433
ag3
((lp1434
Vused
p1435
aVprobability
p1436
aVclassification
p1437
aVdecision
p1438
aVtree
p1439
aVexample
p1440
aVweather
p1441
aValgorithms
p1442
aVdata
p1443
aVevent
p1444
atp1445
Rp1446
ag3
((lp1447
Vuse
p1448
aVrun
p1449
aVdf
p1450
aVframe
p1451
aVnumber
p1452
aVlet
p1453
aVvariable
p1454
aVdata
p1455
aVcreate
p1456
aVcolumns
p1457
atp1458
Rp1459
ag3
((lp1460
Vrun
p1461
aVfeatures
p1462
aVframe
p1463
aVargument
p1464
aVhumidity
p1465
aVrelative
p1466
aVlet
p1467
aVnew
p1468
aVlabel
p1469
aVdata
p1470
atp1471
Rp1472
ag3
((lp1473
Vcount
p1474
aVtraining
p1475
aVcolumn
p1476
aVcriteria
p1477
aVtree
p1478
aVpipeline
p1479
aVargument
p1480
aVenter
p1481
aVstopping
p1482
aVdata
p1483
atp1484
Rp1485
ag3
((lp1486
Vcsv
p1487
aVcreate
p1488
aVpredictions
p1489
aVprediction
p1490
aVlabel
p1491
aVfile
p1492
aVactivity
p1493
aVspark
p1494
aVsave
p1495
aVdata
p1496
atp1497
Rp1498
ag3
((lp1499
Vnode
p1500
aVmissing
p1501
aVcreate
p1502
aVdaily
p1503
aVhumidity
p1504
aVweather
p1505
aVvalue
p1506
aVnew
p1507
aVdata
p1508
aVlow
p1509
atp1510
Rp1511
ag3
((lp1512
Vcompare
p1513
aVfiltering
p1514
aVmissing
p1515
aV1500
p1516
aVmaximum
p1517
aVadd
p1518
aVstatistics
p1519
aVlet
p1520
aVvalues
p1521
aVchange
p1522
atp1523
Rp1524
ag3
((lp1525
Vnode
p1526
aVstatistics
p1527
aVconfigure
p1528
aVdouble
p1529
aVhumidity
p1530
aVadd
p1531
aVlow
p1532
aVoutput
p1533
aVclick
p1534
aVconnect
p1535
atp1536
Rp1537
ag3
((lp1538
Vnode
p1539
aVdecision
p1540
aVtree
p1541
aVpredictor
p1542
aVseed
p1543
aVconnect
p1544
aVoutput
p1545
aVclick
p1546
aVchange
p1547
aVview
p1548
atp1549
Rp1550
ag3
((lp1551
Vtask
p1552
aVtarget
p1553
aVclassification
p1554
aVdecision
p1555
aVtree
p1556
aVlet
p1557
aVinput
p1558
aVdata
p1559
aVexpand
p1560
aVdefine
p1561
atp1562
Rp1563
ag3
((lp1564
Vtask
p1565
aVtarget
p1566
aVclassification
p1567
aVpredict
p1568
aVweather
p1569
aVvalues
p1570
aVvariable
p1571
aVinput
p1572
aVdata
p1573
aVtemperature
p1574
atp1575
Rp1576
ag3
((lp1577
Vbinary
p1578
aVmulti
p1579
aVtarget
p1580
aVclassification
p1581
aVpossible
p1582
aVrain
p1583
aVtomorrow
p1584
aVvalues
p1585
aVvariable
p1586
aVclass
p1587
atp1588
Rp1589
ag3
((lp1590
Vused
p1591
aVtarget
p1592
aVclassification
p1593
aVdecision
p1594
aVtree
p1595
aVpossible
p1596
aVregions
p1597
aVsubsets
p1598
aVdata
p1599
aVclass
p1600
atp1601
Rp1602
ag3
((lp1603
Vnode
p1604
aVleaf
p1605
aVclassification
p1606
aVdecision
p1607
aVtree
p1608
aVpossible
p1609
aVboundaries
p1610
aVnodes
p1611
aVroot
p1612
aVcalled
p1613
atp1614
Rp1615
ag3
((lp1616
Vnode
p1617
aVanimal
p1618
aVsubsets
p1619
aVdecision
p1620
aVtree
p1621
aVpossible
p1622
aVdepth
p1623
aVsamples
p1624
aVmammal
p1625
aVroot
p1626
atp1627
Rp1628
ag3
((lp1629
Vnode
p1630
aValgorithm
p1631
aVinduction
p1632
aVdecision
p1633
aVtree
p1634
aVapproach
p1635
aVsplit
p1636
aVway
p1637
aVdata
p1638
aVbest
p1639
atp1640
Rp1641
ag3
((lp1642
Vindex
p1643
aVgini
p1644
aVimpurity
p1645
aVsubsets
p1646
aVpartition
p1647
aVresulting
p1648
aVsplit
p1649
aVmeasure
p1650
aVclass
p1651
aVpurity
p1652
atp1653
Rp1654
ag3
((lp1655
Vnode
p1656
aValgorithm
p1657
aVsubsets
p1658
aVtree
p1659
aVstop
p1660
aVdoes
p1661
aVsplit
p1662
aVway
p1663
aVdata
p1664
aVclass
p1665
atp1666
Rp1667
ag3
((lp1668
Vnode
p1669
aVclassification
p1670
aValgorithm
p1671
aVtree
p1672
aVdecision
p1673
aVstop
p1674
aVsamples
p1675
aVexpanding
p1676
aVinduction
p1677
aVloan
p1678
atp1679
Rp1680
ag3
((lp1681
Vsubset
p1682
aVright
p1683
aVgreater
p1684
aVdecision
p1685
aVt1
p1686
aVsplit
p1687
aVsamples
p1688
aVincome
p1689
aVboundary
p1690
aVdata
p1691
atp1692
Rp1693
ag3
((lp1694
Vnode
p1695
aVdiagram
p1696
aVshown
p1697
aVdecision
p1698
aVtree
p1699
aVboundaries
p1700
aVresulting
p1701
aVsplit
p1702
aVred
p1703
aVleft
p1704
atp1705
Rp1706
ag3
((lp1707
Vclassification
p1708
aVdata
p1709
aVdecision
p1710
aVtree
p1711
aVresulting
p1712
aVunderstand
p1713
aVproblem
p1714
aVinduction
p1715
aVvariables
p1716
aVrelatively
p1717
atp1718
Rp1719
ag3
((lp1720
Vknn
p1721
aVneighbors
p1722
aVlike
p1723
aVclassification
p1724
aVable
p1725
aVdecision
p1726
aVtree
p1727
aVsample
p1728
aVduck
p1729
aVstands
p1730
atp1731
Rp1732
ag3
((lp1733
Vneighbors
p1734
aVsamples
p1735
aVneighboring
p1736
aVlabels
p1737
aVlabel
p1738
aVsample
p1739
aVdetermine
p1740
aVnew
p1741
aVcircle
p1742
aVclass
p1743
atp1744
Rp1745
ag3
((lp1746
Vneighbors
p1747
aVnearest
p1748
aVused
p1749
aVfigure
p1750
aVconsidered
p1751
aVlabel
p1752
aVsample
p1753
aVmajority
p1754
aVneighbor
p1755
aVnew
p1756
atp1757
Rp1758
ag3
((lp1759
Vneighbors
p1760
aVdistance
p1761
aVused
p1762
aVclassification
p1763
aVseparate
p1764
aVmeasures
p1765
aVlabel
p1766
aVrandomly
p1767
aVknn
p1768
aVdetermine
p1769
atp1770
Rp1771
ag3
((lp1772
Vfeatures
p1773
aVclassification
p1774
aVmeans
p1775
aVnaive
p1776
aVdiscuss
p1777
aVsample
p1778
aVbayes
p1779
aVinput
p1780
aVclass
p1781
aVclassifier
p1782
atp1783
Rp1784
ag3
((lp1785
Vprobability
p1786
aVgetting
p1787
aVways
p1788
aVdie
p1789
aVnaive
p1790
aVnumber
p1791
aVassumption
p1792
aVbayes
p1793
aVevent
p1794
aVindependence
p1795
atp1796
Rp1797
ag3
((lp1798
Vshown
p1799
aVprobability
p1800
aVdie
p1801
aVconditional
p1802
aVevents
p1803
aVjoint
p1804
aVrolling
p1805
aVcircle
p1806
aVevent
p1807
aVoccurring
p1808
atp1809
Rp1810
ag3
((lp1811
Vgiven
p1812
aVrelationship
p1813
aVprobability
p1814
aVconditional
p1815
aVnamed
p1816
aVbayes
p1817
aVtheorem
p1818
aVcircle
p1819
aVevent
p1820
aVoccurring
p1821
atp1822
Rp1823
ag3
((lp1824
Vgiven
p1825
aVprobability
p1826
aVclassification
p1827
aVconditional
p1828
aVfeature
p1829
aVbayes
p1830
aVtheorem
p1831
aVusing
p1832
aVproblem
p1833
aVclass
p1834
atp1835
Rp1836
ag3
((lp1837
Vgiven
p1838
aVfeatures
p1839
aVprobability
p1840
aVlabel
p1841
aVprior
p1842
aVposterior
p1843
aVbayes
p1844
aVinput
p1845
aVobserving
p1846
aVclass
p1847
atp1848
Rp1849
ag3
((lp1850
V10
p1851
aVgiven
p1852
aVfraction
p1853
aVprobability
p1854
aVestimating
p1855
aVassumption
p1856
aVsamples
p1857
aVdata
p1858
aVclass
p1859
aVcalculate
p1860
atp1861
Rp1862
ag3
((lp1863
Vgiven
p1864
aVnumber
p1865
aVprobability
p1866
aVclassification
p1867
aVfeature
p1868
aVlabel
p1869
aVpredicted
p1870
aVyes
p1871
aVtrue
p1872
aVclass
p1873
atp1874
Rp1875
ag3
((lp1876
Vmatrix
p1877
aVpositive
p1878
aVcorresponds
p1879
aVnegative
p1880
aVcell
p1881
aVpredicted
p1882
aVsamples
p1883
aVconfusion
p1884
aVtrue
p1885
aVcorrectly
p1886
atp1887
Rp1888
ag3
((lp1889
Vfalse
p1890
aVmatrix
p1891
aVpositive
p1892
aVnegative
p1893
aVcell
p1894
aVnegatives
p1895
aVenter
p1896
aVconfusion
p1897
aVtrue
p1898
aVexample
p1899
atp1900
Rp1901
ag3
((lp1902
Vsum
p1903
aVdiagonal
p1904
aVpredictions
p1905
aVvalues
p1906
aVsamples
p1907
aVperformance
p1908
aVpositives
p1909
aVmodel
p1910
aVtrue
p1911
aVexample
p1912
atp1913
Rp1914
ag3
((lp1915
Vmatrix
p1916
aVconfusion
p1917
aVsum
p1918
aVdiagonal
p1919
aVrate
p1920
aVvalues
p1921
aVerror
p1922
aVmodel
p1923
aVdivided
p1924
aVaccuracy
p1925
atp1926
Rp1927
ag3
((lp1928
Vknime
p1929
aVmatrix
p1930
aVclassification
p1931
aVconfusion
p1932
aVdecision
p1933
aVtree
p1934
aVscorer
p1935
aVdouble
p1936
aVmodel
p1937
aVaccuracy
p1938
atp1939
Rp1940
ag3
((lp1941
Vlow
p1942
aVrun
p1943
aVworkflow
p1944
aVhumidity
p1945
aVconnect
p1946
aVvalues
p1947
aVpredicted
p1948
aVtable
p1949
aVpredictor
p1950
aVview
p1951
atp1952
Rp1953
ag3
((lp1954
Vload
p1955
aVplot
p1956
aVexecute
p1957
aVpredictions
p1958
aVcell
p1959
aVlet
p1960
aVchoose
p1961
aVactivity
p1962
aVscatter
p1963
aVrow
p1964
atp1965
Rp1966
ag3
((lp1967
Vmulti
p1968
aVpredictions
p1969
aVmetrics
p1970
aVrdd
p1971
aVnumbers
p1972
aVusing
p1973
aVevaluator
p1974
aVdata
p1975
aVclass
p1976
aVaccuracy
p1977
atp1978
Rp1979
ag3
((lp1980
Voverfitting
p1981
aVmachine
p1982
aVgeneralization
p1983
aVlabel
p1984
aVmetrics
p1985
aVrdd
p1986
aVoutput
p1987
aVinput
p1988
aVmodel
p1989
aVclass
p1990
atp1991
Rp1992
ag3
((lp1993
Vtraining
p1994
aVbuilt
p1995
aVperform
p1996
aVrate
p1997
aVsimply
p1998
aVerror
p1999
aVtest
p2000
aVnew
p2001
aVmodel
p2002
aVdata
p2003
atp2004
Rp2005
ag3
((lp2006
Voverfitting
p2007
aVtraining
p2008
aVgeneralization
p2009
aVunderlying
p2010
aVsamples
p2011
aVerror
p2012
aVinstead
p2013
aVlearned
p2014
aVdata
p2015
aVmodel
p2016
atp2017
Rp2018
ag3
((lp2019
Voverfitting
p2020
aVtraining
p2021
aVset
p2022
aVhigh
p2023
aVgeneralize
p2024
aVerror
p2025
aVnew
p2026
aVmodel
p2027
aVdata
p2028
aVoccurs
p2029
atp2030
Rp2031
ag3
((lp2032
Vdifferent
p2033
aVtask
p2034
aVclassification
p2035
aVevaluate
p2036
aVlabel
p2037
aVmetrics
p2038
aVperformance
p2039
aVmodel
p2040
aVdata
p2041
aVclass
p2042
atp2043
Rp2044
ag3
((lp2045
Vcase
p2046
aVabbreviated
p2047
aVfalse
p2048
aVpositive
p2049
aVbutton
p2050
aVnegative
p2051
aVlabel
p2052
aVpredicted
p2053
aVtrue
p2054
aVaccuracy
p2055
atp2056
Rp2057
ag3
((lp2058
Vpredictions
p2059
aVnumber
p2060
aVprediction
p2061
aVrate
p2062
aVpredicted
p2063
aVerror
p2064
aVmodel
p2065
aVlabel
p2066
aVtrue
p2067
aVaccuracy
p2068
atp2069
Rp2070
ag3
((lp2071
Vtumor
p2072
aVcalculate
p2073
aVrate
p2074
aVclass
p2075
aVtn
p2076
aVcancerous
p2077
aVsamples
p2078
aVerror
p2079
aVexample
p2080
aVaccuracy
p2081
atp2082
Rp2083
ag3
((lp2084
Vnumber
p2085
aVproblem
p2086
aVclass
p2087
aVsamples
p2088
aVpositives
p2089
aVcases
p2090
aVimbalance
p2091
aVtrue
p2092
aVmodel
p2093
aVaccuracy
p2094
atp2095
Rp2096
ag3
((lp2097
Vpositive
p2098
aVnumber
p2099
aVactually
p2100
aVgreen
p2101
aVpredicted
p2102
aVsamples
p2103
aVhalf
p2104
aVpositives
p2105
aVcircle
p2106
aVtrue
p2107
atp2108
Rp2109
ag3
((lp2110
Vnode
p2111
aVnetwork
p2112
aVgraph
p2113
aVvertex
p2114
aVedge
p2115
aVedges
p2116
aVlet
p2117
aVpath
p2118
aVnodes
p2119
aVdata
p2120
atp2121
Rp2122
asS'timings'
p2123
(lp2124
S'0:0:0,0:7:22'
p2125
aS'0:7:22,0:19:58'
p2126
aS'0:19:58,0:21:42'
p2127
aS'0:21:42,0:23:14'
p2128
aS'0:23:14,0:43:1'
p2129
aS'0:43:1,1:25:37'
p2130
aS'1:25:37,1:27:12'
p2131
aS'1:27:12,1:28:42'
p2132
aS'1:28:42,2:59:9'
p2133
aS'2:59:11,23:18:3'
p2134
aS'23:18:3,23:19:46'
p2135
aS'23:19:47,23:21:28'
p2136
aS'23:21:29,21:32:0'
p2137
aS'21:32:3,19:2:29'
p2138
aS'19:2:30,14:2:24'
p2139
aS'14:2:24,4:4:53'
p2140
aS'4:4:53,4:6:32'
p2141
aS'4:6:35,4:8:14'
p2142
aS'4:8:15,8:19:34'
p2143
aS'8:19:34,8:20:47'
p2144
aS'8:20:47,16:38:57'
p2145
aS'16:38:58,9:16:8'
p2146
aS'9:16:8,9:17:37'
p2147
aS'9:17:37,18:34:47'
p2148
aS'18:34:47,16:44:52'
p2149
aS'16:44:55,16:46:31'
p2150
aS'16:46:33,16:48:1'
p2151
aS'16:48:1,9:33:56'
p2152
aS'9:33:57,9:35:33'
p2153
aS'9:35:35,9:37:5'
p2154
aS'9:37:5,9:47:37'
p2155
aS'19:32:56,1:48:37'
p2156
aS'1:48:37,14:27:12'
p2157
aS'14:27:12,4:51:2'
p2158
aS'4:51:2,4:52:28'
p2159
aS'4:52:28,12:50:52'
p2160
aS'12:50:52,1:38:47'
p2161
aS'1:38:47,3:52:23'
p2162
aS'3:52:23,3:54:2'
p2163
aS'3:54:2,3:56:10'
p2164
aS'3:56:10,7:48:14'
p2165
aS'7:48:14,7:54:39'
p2166
aS'7:54:40,15:43:9'
p2167
aS'15:43:9,15:44:41'
p2168
aS'15:44:41,15:46:5'
p2169
aS'15:46:5,15:47:30'
p2170
aS'15:47:30,15:49:4'
p2171
aS'15:49:4,5:33:21'
p2172
aS'5:33:21,5:36:18'
p2173
aS'5:36:20,5:37:47'
p2174
aS'5:37:51,5:39:31'
p2175
aS'5:39:31,11:12:42'
p2176
aS'11:12:43,11:14:26'
p2177
aS'11:14:26,11:16:19'
p2178
aS'11:16:19,22:30:40'
p2179
aS'22:30:41,22:32:18'
p2180
aS'22:32:18,22:35:19'
p2181
aS'22:35:19,21:6:43'
p2182
aS'21:6:43,21:8:32'
p2183
aS'21:8:32,21:10:13'
p2184
aS'21:10:13,21:12:10'
p2185
aS'21:12:10,18:26:32'
p2186
aS'18:26:33,18:32:45'
p2187
aS'18:32:46,18:34:24'
p2188
aS'18:34:25,18:35:51'
p2189
aS'18:35:51,12:58:29'
p2190
aS'12:58:30,13:1:29'
p2191
aS'13:1:29,13:7:34'
p2192
aS'13:7:34,13:9:11'
p2193
aS'13:9:12,19:34:33'
p2194
aS'19:34:33,15:9:14'
p2195
aS'15:9:15,15:10:49'
p2196
aS'15:10:51,6:16:56'
p2197
aS'6:16:58,6:24:12'
p2198
aS'6:24:12,12:41:50'
p2199
aS'12:41:50,12:43:26'
p2200
aS'12:43:27,12:45:8'
p2201
aS'12:45:8,12:46:34'
p2202
aS'12:46:35,12:48:2'
p2203
aS'12:48:4,1:30:27'
p2204
aS'1:30:27,1:32:1'
p2205
aS'1:32:1,1:33:39'
p2206
aS'1:33:40,14:16:7'
p2207
aS'14:16:7,18:15:52'
p2208
aS'18:15:52,18:17:6'
p2209
aS'18:17:6,18:21:57'
p2210
aS'18:21:57,18:23:8'
p2211
aS'18:23:10,12:40:12'
p2212
aS'12:40:13,12:42:49'
p2213
aS'12:42:49,1:34:30'
p2214
aS'1:34:30,1:35:48'
p2215
aS'1:35:48,1:36:52'
p2216
aS'1:36:52,3:7:8'
p2217
aS'3:7:10,3:8:30'
p2218
aS'3:8:30,3:9:39'
p2219
aS'6:15:51,6:19:1'
p2220
aS'6:19:1,6:20:45'
p2221
aS'6:20:45,12:38:11'
p2222
aS'12:38:11,12:41:33'
p2223
aS'12:41:33,12:43:16'
p2224
aS'12:43:16,12:44:52'
p2225
aS'12:44:52,12:46:35'
p2226
aS'12:46:37,1:26:13'
p2227
aS'1:26:14,1:27:35'
p2228
aS'1:27:35,1:28:58'
p2229
aS'1:28:58,2:54:28'
p2230
aS'2:54:28,2:55:46'
p2231
aS'2:55:48,15:43:32'
p2232
aS'15:43:35,15:46:20'
p2233
aS'15:46:20,17:11:19'
p2234
aS'17:11:19,10:21:52'
p2235
aS'10:21:52,10:23:38'
p2236
aS'10:23:38,10:25:13'
p2237
aS'10:25:13,10:26:54'
p2238
aS'10:26:54,20:49:44'
p2239
aS'20:49:45,20:51:38'
p2240
aS'20:51:47,20:53:35'
p2241
aS'20:53:46,20:55:33'
p2242
aS'20:55:33,20:57:0'
p2243
aS'20:57:1,17:47:52'
p2244
aS'17:47:52,17:49:17'
p2245
aS'17:49:17,17:50:45'
p2246
aS'17:50:45,11:39:9'
p2247
aS'11:39:9,11:40:32'
p2248
aS'11:40:32,11:41:50'
p2249
aS'11:41:52,11:43:4'
p2250
aS'11:43:4,11:44:19'
p2251
aS'11:44:19,11:45:31'
p2252
aS'11:45:32,11:46:51'
p2253
aS'11:46:51,11:48:15'
p2254
aS'11:48:17,11:49:35'
p2255
aS'11:49:35,11:50:55'
p2256
aS'11:50:55,23:30:40'
p2257
aS'23:30:40,23:31:46'
p2258
aS'23:31:47,23:33:7'
p2259
aS'23:33:7,23:34:24'
p2260
aS'23:34:26,23:5:42'
p2261
aS'23:5:42,23:7:1'
p2262
aS'23:7:1,23:8:43'
p2263
aS'23:8:43,23:10:16'
p2264
aS'23:10:16,23:11:47'
p2265
aS'23:11:49,23:13:30'
p2266
aS'23:13:32,23:14:58'
p2267
aS'23:14:58,22:24:52'
p2268
aS'22:24:54,22:26:4'
p2269
aS'22:26:4,22:27:18'
p2270
aS'22:27:20,22:28:41'
p2271
aS'22:28:41,22:30:1'
p2272
aS'22:30:2,20:54:30'
p2273
aS'20:54:32,20:56:28'
p2274
aS'20:56:32,17:51:12'
p2275
aS'17:51:12,17:52:45'
p2276
aS'17:52:46,11:44:49'
p2277
aS'11:44:50,11:46:11'
p2278
aS'11:46:11,11:47:25'
p2279
aS'11:47:25,11:48:36'
p2280
aS'11:48:36,23:33:49'
p2281
aS'23:33:49,23:35:12'
p2282
aS'23:35:12,23:36:30'
p2283
aS'23:36:30,23:37:57'
p2284
aS'23:37:57,23:39:15'
p2285
aS'23:39:15,23:40:38'
p2286
aS'23:40:40,3:11:11'
p2287
as.